target datalayout = "e-m:e-p270:32:32-p271:32:32-p272:64:64-i64:64-i128:128-f80:128-n8:16:32:64-S128"
target triple = "x86_64-pc-linux-gnu"

%struct.asn1_object_st = type { ptr, ptr, i32, i32, ptr, i32 }

@.str = private unnamed_addr constant [34 x i8] c"../openssl/crypto/asn1/a_object.c\00", align 1
@__func__.ossl_c2i_ASN1_OBJECT = private unnamed_addr constant [21 x i8] c"ossl_c2i_ASN1_OBJECT\00", align 1

; Function Attrs: nounwind uwtable
define ptr @ASN1_OBJECT_new() #0 {
  %1 = alloca ptr, align 8
  %2 = alloca ptr, align 8
  %3 = alloca i32, align 4
  call void @llvm.lifetime.start.p0(i64 8, ptr %2) #5
  %4 = call noalias ptr @CRYPTO_zalloc(i64 noundef 40, ptr noundef @.str, i32 noundef 340)
  store ptr %4, ptr %2, align 8, !tbaa !3
  %5 = load ptr, ptr %2, align 8, !tbaa !3
  %6 = icmp eq ptr %5, null
  br i1 %6, label %7, label %8

7:                                                ; preds = %0
  store ptr null, ptr %1, align 8
  store i32 1, ptr %3, align 4
  br label %12

8:                                                ; preds = %0
  %9 = load ptr, ptr %2, align 8, !tbaa !3
  %10 = getelementptr inbounds nuw %struct.asn1_object_st, ptr %9, i32 0, i32 5
  store i32 1, ptr %10, align 8, !tbaa !30
  %11 = load ptr, ptr %2, align 8, !tbaa !3
  store ptr %11, ptr %1, align 8
  store i32 1, ptr %3, align 4
  br label %12

12:                                               ; preds = %8, %7
  call void @llvm.lifetime.end.p0(i64 8, ptr %2) #5
  %13 = load ptr, ptr %1, align 8
  ret ptr %13
}

; Function Attrs: nounwind uwtable
define ptr @ossl_c2i_ASN1_OBJECT(ptr noundef %0, ptr noundef %1, i64 noundef %2) #0 {
  %4 = alloca ptr, align 8
  %5 = alloca ptr, align 8
  %6 = alloca ptr, align 8
  %7 = alloca i64, align 8
  %8 = alloca ptr, align 8
  %9 = alloca %struct.asn1_object_st, align 8
  %10 = alloca ptr, align 8
  %11 = alloca ptr, align 8
  %12 = alloca i32, align 4
  %13 = alloca i32, align 4
  %14 = alloca i32, align 4
  store ptr %0, ptr %5, align 8, !tbaa !27
  store ptr %1, ptr %6, align 8, !tbaa !8
  store i64 %2, ptr %7, align 8, !tbaa !20
  call void @llvm.lifetime.start.p0(i64 8, ptr %8) #5
  store ptr null, ptr %8, align 8, !tbaa !3
  call void @llvm.lifetime.start.p0(i64 40, ptr %9) #5
  call void @llvm.lifetime.start.p0(i64 8, ptr %10) #5
  call void @llvm.lifetime.start.p0(i64 8, ptr %11) #5
  call void @llvm.lifetime.start.p0(i64 4, ptr %12) #5
  call void @llvm.lifetime.start.p0(i64 4, ptr %13) #5
  %15 = load i64, ptr %7, align 8, !tbaa !20
  %16 = icmp sle i64 %15, 0
  br i1 %16, label %36, label %17

17:                                               ; preds = %3
  %18 = load i64, ptr %7, align 8, !tbaa !20
  %19 = icmp sgt i64 %18, 2147483647
  br i1 %19, label %36, label %20

20:                                               ; preds = %17
  %21 = load ptr, ptr %6, align 8, !tbaa !8
  %22 = icmp eq ptr %21, null
  br i1 %22, label %36, label %23

23:                                               ; preds = %20
  %24 = load ptr, ptr %6, align 8, !tbaa !8
  %25 = load ptr, ptr %24, align 8, !tbaa !10
  store ptr %25, ptr %10, align 8, !tbaa !10
  %26 = icmp eq ptr %25, null
  br i1 %26, label %36, label %27

27:                                               ; preds = %23
  %28 = load ptr, ptr %10, align 8, !tbaa !10
  %29 = load i64, ptr %7, align 8, !tbaa !20
  %30 = sub nsw i64 %29, 1
  %31 = getelementptr inbounds i8, ptr %28, i64 %30
  %32 = load i8, ptr %31, align 1, !tbaa !19
  %33 = zext i8 %32 to i32
  %34 = and i32 %33, 128
  %35 = icmp ne i32 %34, 0
  br i1 %35, label %36, label %37

36:                                               ; preds = %27, %23, %20, %17, %3
  call void @ERR_new()
  call void @ERR_set_debug(ptr noundef @.str, i32 noundef 254, ptr noundef @__func__.ossl_c2i_ASN1_OBJECT)
  call void (i32, i32, ptr, ...) @ERR_set_error(i32 noundef 13, i32 noundef 216, ptr noundef null)
  store ptr null, ptr %4, align 8
  store i32 1, ptr %14, align 4
  br label %202

37:                                               ; preds = %27
  %38 = load i64, ptr %7, align 8, !tbaa !20
  %39 = trunc i64 %38 to i32
  store i32 %39, ptr %13, align 4, !tbaa !16
  %40 = getelementptr inbounds nuw %struct.asn1_object_st, ptr %9, i32 0, i32 2
  store i32 0, ptr %40, align 8, !tbaa !29
  %41 = load ptr, ptr %10, align 8, !tbaa !10
  %42 = getelementptr inbounds nuw %struct.asn1_object_st, ptr %9, i32 0, i32 4
  store ptr %41, ptr %42, align 8, !tbaa !12
  %43 = load i32, ptr %13, align 4, !tbaa !16
  %44 = getelementptr inbounds nuw %struct.asn1_object_st, ptr %9, i32 0, i32 3
  store i32 %43, ptr %44, align 4, !tbaa !15
  %45 = getelementptr inbounds nuw %struct.asn1_object_st, ptr %9, i32 0, i32 5
  store i32 0, ptr %45, align 8, !tbaa !30
  %46 = call i32 @OBJ_obj2nid(ptr noundef %9)
  store i32 %46, ptr %12, align 4, !tbaa !16
  %47 = load i32, ptr %12, align 4, !tbaa !16
  %48 = icmp ne i32 %47, 0
  br i1 %48, label %49, label %65

49:                                               ; preds = %37
  %50 = load i32, ptr %12, align 4, !tbaa !16
  %51 = call ptr @OBJ_nid2obj(i32 noundef %50)
  store ptr %51, ptr %8, align 8, !tbaa !3
  %52 = load ptr, ptr %5, align 8, !tbaa !27
  %53 = icmp ne ptr %52, null
  br i1 %53, label %54, label %59

54:                                               ; preds = %49
  %55 = load ptr, ptr %5, align 8, !tbaa !27
  %56 = load ptr, ptr %55, align 8, !tbaa !3
  call void @ASN1_OBJECT_free(ptr noundef %56)
  %57 = load ptr, ptr %8, align 8, !tbaa !3
  %58 = load ptr, ptr %5, align 8, !tbaa !27
  store ptr %57, ptr %58, align 8, !tbaa !3
  br label %59

59:                                               ; preds = %54, %49
  %60 = load i64, ptr %7, align 8, !tbaa !20
  %61 = load ptr, ptr %6, align 8, !tbaa !8
  %62 = load ptr, ptr %61, align 8, !tbaa !10
  %63 = getelementptr inbounds i8, ptr %62, i64 %60
  store ptr %63, ptr %61, align 8, !tbaa !10
  %64 = load ptr, ptr %8, align 8, !tbaa !3
  store ptr %64, ptr %4, align 8
  store i32 1, ptr %14, align 4
  br label %202

65:                                               ; preds = %37
  store i32 0, ptr %12, align 4, !tbaa !16
  br label %66

66:                                               ; preds = %87, %65
  %67 = load i32, ptr %12, align 4, !tbaa !16
  %68 = load i32, ptr %13, align 4, !tbaa !16
  %69 = icmp slt i32 %67, %68
  br i1 %69, label %70, label %92

70:                                               ; preds = %66
  %71 = load ptr, ptr %10, align 8, !tbaa !10
  %72 = load i8, ptr %71, align 1, !tbaa !19
  %73 = zext i8 %72 to i32
  %74 = icmp eq i32 %73, 128
  br i1 %74, label %75, label %86

75:                                               ; preds = %70
  %76 = load i32, ptr %12, align 4, !tbaa !16
  %77 = icmp ne i32 %76, 0
  br i1 %77, label %78, label %85

78:                                               ; preds = %75
  %79 = load ptr, ptr %10, align 8, !tbaa !10
  %80 = getelementptr inbounds i8, ptr %79, i64 -1
  %81 = load i8, ptr %80, align 1, !tbaa !19
  %82 = zext i8 %81 to i32
  %83 = and i32 %82, 128
  %84 = icmp ne i32 %83, 0
  br i1 %84, label %86, label %85

85:                                               ; preds = %78, %75
  call void @ERR_new()
  call void @ERR_set_debug(ptr noundef @.str, i32 noundef 284, ptr noundef @__func__.ossl_c2i_ASN1_OBJECT)
  call void (i32, i32, ptr, ...) @ERR_set_error(i32 noundef 13, i32 noundef 216, ptr noundef null)
  store ptr null, ptr %4, align 8
  store i32 1, ptr %14, align 4
  br label %202

86:                                               ; preds = %78, %70
  br label %87

87:                                               ; preds = %86
  %88 = load i32, ptr %12, align 4, !tbaa !16
  %89 = add nsw i32 %88, 1
  store i32 %89, ptr %12, align 4, !tbaa !16
  %90 = load ptr, ptr %10, align 8, !tbaa !10
  %91 = getelementptr inbounds nuw i8, ptr %90, i32 1
  store ptr %91, ptr %10, align 8, !tbaa !10
  br label %66, !llvm.loop !31

92:                                               ; preds = %66
  %93 = load ptr, ptr %5, align 8, !tbaa !27
  %94 = icmp eq ptr %93, null
  br i1 %94, label %106, label %95

95:                                               ; preds = %92
  %96 = load ptr, ptr %5, align 8, !tbaa !27
  %97 = load ptr, ptr %96, align 8, !tbaa !3
  %98 = icmp eq ptr %97, null
  br i1 %98, label %106, label %99

99:                                               ; preds = %95
  %100 = load ptr, ptr %5, align 8, !tbaa !27
  %101 = load ptr, ptr %100, align 8, !tbaa !3
  %102 = getelementptr inbounds nuw %struct.asn1_object_st, ptr %101, i32 0, i32 5
  %103 = load i32, ptr %102, align 8, !tbaa !30
  %104 = and i32 %103, 1
  %105 = icmp ne i32 %104, 0
  br i1 %105, label %111, label %106

106:                                              ; preds = %99, %95, %92
  %107 = call ptr @ASN1_OBJECT_new()
  store ptr %107, ptr %8, align 8, !tbaa !3
  %108 = icmp eq ptr %107, null
  br i1 %108, label %109, label %110

109:                                              ; preds = %106
  store ptr null, ptr %4, align 8
  store i32 1, ptr %14, align 4
  br label %202

110:                                              ; preds = %106
  br label %114

111:                                              ; preds = %99
  %112 = load ptr, ptr %5, align 8, !tbaa !27
  %113 = load ptr, ptr %112, align 8, !tbaa !3
  store ptr %113, ptr %8, align 8, !tbaa !3
  br label %114

114:                                              ; preds = %111, %110
  %115 = load ptr, ptr %6, align 8, !tbaa !8
  %116 = load ptr, ptr %115, align 8, !tbaa !10
  store ptr %116, ptr %10, align 8, !tbaa !10
  %117 = load ptr, ptr %8, align 8, !tbaa !3
  %118 = getelementptr inbounds nuw %struct.asn1_object_st, ptr %117, i32 0, i32 4
  %119 = load ptr, ptr %118, align 8, !tbaa !12
  store ptr %119, ptr %11, align 8, !tbaa !10
  %120 = load ptr, ptr %8, align 8, !tbaa !3
  %121 = getelementptr inbounds nuw %struct.asn1_object_st, ptr %120, i32 0, i32 4
  store ptr null, ptr %121, align 8, !tbaa !12
  %122 = load ptr, ptr %11, align 8, !tbaa !10
  %123 = icmp eq ptr %122, null
  br i1 %123, label %130, label %124

124:                                              ; preds = %114
  %125 = load ptr, ptr %8, align 8, !tbaa !3
  %126 = getelementptr inbounds nuw %struct.asn1_object_st, ptr %125, i32 0, i32 3
  %127 = load i32, ptr %126, align 4, !tbaa !15
  %128 = load i32, ptr %13, align 4, !tbaa !16
  %129 = icmp slt i32 %127, %128
  br i1 %129, label %130, label %145

130:                                              ; preds = %124, %114
  %131 = load ptr, ptr %8, align 8, !tbaa !3
  %132 = getelementptr inbounds nuw %struct.asn1_object_st, ptr %131, i32 0, i32 3
  store i32 0, ptr %132, align 4, !tbaa !15
  %133 = load ptr, ptr %11, align 8, !tbaa !10
  call void @CRYPTO_free(ptr noundef %133, ptr noundef @.str, i32 noundef 304)
  %134 = load i32, ptr %13, align 4, !tbaa !16
  %135 = sext i32 %134 to i64
  %136 = call noalias ptr @CRYPTO_malloc(i64 noundef %135, ptr noundef @.str, i32 noundef 305)
  store ptr %136, ptr %11, align 8, !tbaa !10
  %137 = load ptr, ptr %11, align 8, !tbaa !10
  %138 = icmp eq ptr %137, null
  br i1 %138, label %139, label %140

139:                                              ; preds = %130
  br label %190

140:                                              ; preds = %130
  %141 = load ptr, ptr %8, align 8, !tbaa !3
  %142 = getelementptr inbounds nuw %struct.asn1_object_st, ptr %141, i32 0, i32 5
  %143 = load i32, ptr %142, align 8, !tbaa !30
  %144 = or i32 %143, 8
  store i32 %144, ptr %142, align 8, !tbaa !30
  br label %145

145:                                              ; preds = %140, %124
  %146 = load ptr, ptr %11, align 8, !tbaa !10
  %147 = load ptr, ptr %10, align 8, !tbaa !10
  %148 = load i32, ptr %13, align 4, !tbaa !16
  %149 = sext i32 %148 to i64
  call void @llvm.memcpy.p0.p0.i64(ptr align 1 %146, ptr align 1 %147, i64 %149, i1 false)
  %150 = load ptr, ptr %8, align 8, !tbaa !3
  %151 = getelementptr inbounds nuw %struct.asn1_object_st, ptr %150, i32 0, i32 5
  %152 = load i32, ptr %151, align 8, !tbaa !30
  %153 = and i32 %152, 4
  %154 = icmp ne i32 %153, 0
  br i1 %154, label %155, label %166

155:                                              ; preds = %145
  %156 = load ptr, ptr %8, align 8, !tbaa !3
  %157 = getelementptr inbounds nuw %struct.asn1_object_st, ptr %156, i32 0, i32 0
  %158 = load ptr, ptr %157, align 8, !tbaa !32
  call void @CRYPTO_free(ptr noundef %158, ptr noundef @.str, i32 noundef 313)
  %159 = load ptr, ptr %8, align 8, !tbaa !3
  %160 = getelementptr inbounds nuw %struct.asn1_object_st, ptr %159, i32 0, i32 1
  %161 = load ptr, ptr %160, align 8, !tbaa !33
  call void @CRYPTO_free(ptr noundef %161, ptr noundef @.str, i32 noundef 314)
  %162 = load ptr, ptr %8, align 8, !tbaa !3
  %163 = getelementptr inbounds nuw %struct.asn1_object_st, ptr %162, i32 0, i32 5
  %164 = load i32, ptr %163, align 8, !tbaa !30
  %165 = and i32 %164, -5
  store i32 %165, ptr %163, align 8, !tbaa !30
  br label %166

166:                                              ; preds = %155, %145
  %167 = load ptr, ptr %11, align 8, !tbaa !10
  %168 = load ptr, ptr %8, align 8, !tbaa !3
  %169 = getelementptr inbounds nuw %struct.asn1_object_st, ptr %168, i32 0, i32 4
  store ptr %167, ptr %169, align 8, !tbaa !12
  %170 = load i32, ptr %13, align 4, !tbaa !16
  %171 = load ptr, ptr %8, align 8, !tbaa !3
  %172 = getelementptr inbounds nuw %struct.asn1_object_st, ptr %171, i32 0, i32 3
  store i32 %170, ptr %172, align 4, !tbaa !15
  %173 = load ptr, ptr %8, align 8, !tbaa !3
  %174 = getelementptr inbounds nuw %struct.asn1_object_st, ptr %173, i32 0, i32 0
  store ptr null, ptr %174, align 8, !tbaa !32
  %175 = load ptr, ptr %8, align 8, !tbaa !3
  %176 = getelementptr inbounds nuw %struct.asn1_object_st, ptr %175, i32 0, i32 1
  store ptr null, ptr %176, align 8, !tbaa !33
  %177 = load i32, ptr %13, align 4, !tbaa !16
  %178 = load ptr, ptr %10, align 8, !tbaa !10
  %179 = sext i32 %177 to i64
  %180 = getelementptr inbounds i8, ptr %178, i64 %179
  store ptr %180, ptr %10, align 8, !tbaa !10
  %181 = load ptr, ptr %5, align 8, !tbaa !27
  %182 = icmp ne ptr %181, null
  br i1 %182, label %183, label %186

183:                                              ; preds = %166
  %184 = load ptr, ptr %8, align 8, !tbaa !3
  %185 = load ptr, ptr %5, align 8, !tbaa !27
  store ptr %184, ptr %185, align 8, !tbaa !3
  br label %186

186:                                              ; preds = %183, %166
  %187 = load ptr, ptr %10, align 8, !tbaa !10
  %188 = load ptr, ptr %6, align 8, !tbaa !8
  store ptr %187, ptr %188, align 8, !tbaa !10
  %189 = load ptr, ptr %8, align 8, !tbaa !3
  store ptr %189, ptr %4, align 8
  store i32 1, ptr %14, align 4
  br label %202

190:                                              ; preds = %139
  call void @ERR_new()
  call void @ERR_set_debug(ptr noundef @.str, i32 noundef 330, ptr noundef @__func__.ossl_c2i_ASN1_OBJECT)
  %191 = load i32, ptr %12, align 4, !tbaa !16
  call void (i32, i32, ptr, ...) @ERR_set_error(i32 noundef 13, i32 noundef %191, ptr noundef null)
  %192 = load ptr, ptr %5, align 8, !tbaa !27
  %193 = icmp eq ptr %192, null
  br i1 %193, label %199, label %194

194:                                              ; preds = %190
  %195 = load ptr, ptr %5, align 8, !tbaa !27
  %196 = load ptr, ptr %195, align 8, !tbaa !3
  %197 = load ptr, ptr %8, align 8, !tbaa !3
  %198 = icmp ne ptr %196, %197
  br i1 %198, label %199, label %201

199:                                              ; preds = %194, %190
  %200 = load ptr, ptr %8, align 8, !tbaa !3
  call void @ASN1_OBJECT_free(ptr noundef %200)
  br label %201

201:                                              ; preds = %199, %194
  store ptr null, ptr %4, align 8
  store i32 1, ptr %14, align 4
  br label %202

202:                                              ; preds = %201, %186, %109, %85, %59, %36
  call void @llvm.lifetime.end.p0(i64 4, ptr %13) #5
  call void @llvm.lifetime.end.p0(i64 4, ptr %12) #5
  call void @llvm.lifetime.end.p0(i64 8, ptr %11) #5
  call void @llvm.lifetime.end.p0(i64 8, ptr %10) #5
  call void @llvm.lifetime.end.p0(i64 40, ptr %9) #5
  call void @llvm.lifetime.end.p0(i64 8, ptr %8) #5
  %203 = load ptr, ptr %4, align 8
  ret ptr %203
}