; Function Attrs: nounwind uwtable
define ptr @ossl_c2i_ASN1_OBJECT(ptr noundef captures(address_is_null) %0, ptr noundef captures(address_is_null) %1, i64 noundef %2) local_unnamed_addr #0 {
  %4 = alloca %struct.asn1_object_st, align 8
  call void @llvm.lifetime.start.p0(i64 40, ptr nonnull %4) #6
  %5 = add i64 %2, -2147483648
  %or.cond = icmp ult i64 %5, -2147483647
  %6 = icmp eq ptr %1, null
  %or.cond3 = or i1 %6, %or.cond
  br i1 %or.cond3, label %14, label %7

7:                                                ; preds = %3
  %8 = load ptr, ptr %1, align 8, !tbaa !11
  %9 = icmp eq ptr %8, null
  br i1 %9, label %14, label %10

10:                                               ; preds = %7
  %11 = getelementptr i8, ptr %8, i64 %2
  %12 = getelementptr i8, ptr %11, i64 -1
  %13 = load i8, ptr %12, align 1, !tbaa !12
  %.not = icmp sgt i8 %13, -1
  br i1 %.not, label %15, label %14

14:                                               ; preds = %10, %7, %3
  tail call void @ERR_new() #6
  tail call void @ERR_set_debug(ptr noundef nonnull @.str, i32 noundef 254, ptr noundef nonnull @__func__.ossl_c2i_ASN1_OBJECT) #6
  tail call void (i32, i32, ptr, ...) @ERR_set_error(i32 noundef 13, i32 noundef 216, ptr noundef null) #6
  br label %ASN1_OBJECT_new.exit.thread

15:                                               ; preds = %10
  %16 = trunc nuw i64 %2 to i32
  %17 = getelementptr inbounds nuw i8, ptr %4, i64 16
  store i32 0, ptr %17, align 8, !tbaa !19
  %18 = getelementptr inbounds nuw i8, ptr %4, i64 24
  store ptr %8, ptr %18, align 8, !tbaa !3
  %19 = getelementptr inbounds nuw i8, ptr %4, i64 20
  store i32 %16, ptr %19, align 4, !tbaa !10
  %20 = getelementptr inbounds nuw i8, ptr %4, i64 32
  store i32 0, ptr %20, align 8, !tbaa !20
  %21 = call i32 @OBJ_obj2nid(ptr noundef nonnull %4) #6
  %.not83 = icmp eq i32 %21, 0
  br i1 %.not83, label %.lr.ph, label %22

22:                                               ; preds = %15
  %23 = call ptr @OBJ_nid2obj(i32 noundef %21) #6
  %.not90 = icmp eq ptr %0, null
  br i1 %.not90, label %46, label %24

24:                                               ; preds = %22
  %25 = load ptr, ptr %0, align 8, !tbaa !21
  %26 = icmp eq ptr %25, null
  br i1 %26, label %ASN1_OBJECT_free.exit, label %27

27:                                               ; preds = %24
  %28 = getelementptr inbounds nuw i8, ptr %25, i64 32
  %29 = load i32, ptr %28, align 8, !tbaa !20
  %30 = and i32 %29, 4
  %.not.i = icmp eq i32 %30, 0
  br i1 %.not.i, label %35, label %31

31:                                               ; preds = %27
  %32 = load ptr, ptr %25, align 8, !tbaa !23
  call void @CRYPTO_free(ptr noundef %32, ptr noundef nonnull @.str, i32 noundef 357) #6
  %33 = getelementptr inbounds nuw i8, ptr %25, i64 8
  %34 = load ptr, ptr %33, align 8, !tbaa !24
  call void @CRYPTO_free(ptr noundef %34, ptr noundef nonnull @.str, i32 noundef 358) #6
  call void @llvm.memset.p0.i64(ptr noundef nonnull align 8 dereferenceable(16) %25, i8 0, i64 16, i1 false)
  %.pre.i = load i32, ptr %28, align 8, !tbaa !20
  br label %35

35:                                               ; preds = %31, %27
  %36 = phi i32 [ %.pre.i, %31 ], [ %29, %27 ]
  %37 = and i32 %36, 8
  %.not12.i = icmp eq i32 %37, 0
  br i1 %.not12.i, label %42, label %38

38:                                               ; preds = %35
  %39 = getelementptr inbounds nuw i8, ptr %25, i64 24
  %40 = load ptr, ptr %39, align 8, !tbaa !3
  call void @CRYPTO_free(ptr noundef %40, ptr noundef nonnull @.str, i32 noundef 363) #6
  store ptr null, ptr %39, align 8, !tbaa !3
  %41 = getelementptr inbounds nuw i8, ptr %25, i64 20
  store i32 0, ptr %41, align 4, !tbaa !10
  %.pre14.i = load i32, ptr %28, align 8, !tbaa !20
  br label %42

42:                                               ; preds = %38, %35
  %43 = phi i32 [ %.pre14.i, %38 ], [ %36, %35 ]
  %44 = and i32 %43, 1
  %.not13.i = icmp eq i32 %44, 0
  br i1 %.not13.i, label %ASN1_OBJECT_free.exit, label %45

45:                                               ; preds = %42
  call void @CRYPTO_free(ptr noundef nonnull %25, ptr noundef nonnull @.str, i32 noundef 368) #6
  br label %ASN1_OBJECT_free.exit

ASN1_OBJECT_free.exit:                            ; preds = %24, %42, %45
  store ptr %23, ptr %0, align 8, !tbaa !21
  br label %46

46:                                               ; preds = %ASN1_OBJECT_free.exit, %22
  %47 = load ptr, ptr %1, align 8, !tbaa !11
  %48 = getelementptr inbounds nuw i8, ptr %47, i64 %2
  store ptr %48, ptr %1, align 8, !tbaa !11
  br label %ASN1_OBJECT_new.exit.thread

.lr.ph:                                           ; preds = %15, %56
  %.06993 = phi i32 [ %57, %56 ], [ 0, %15 ]
  %.07192 = phi ptr [ %58, %56 ], [ %8, %15 ]
  %49 = load i8, ptr %.07192, align 1, !tbaa !12
  %50 = icmp eq i8 %49, -128
  br i1 %50, label %51, label %56

51:                                               ; preds = %.lr.ph
  %.not88 = icmp eq i32 %.06993, 0
  br i1 %.not88, label %55, label %52

52:                                               ; preds = %51
  %53 = getelementptr inbounds i8, ptr %.07192, i64 -1
  %54 = load i8, ptr %53, align 1, !tbaa !12
  %.not89 = icmp sgt i8 %54, -1
  br i1 %.not89, label %55, label %56

55:                                               ; preds = %52, %51
  call void @ERR_new() #6
  call void @ERR_set_debug(ptr noundef nonnull @.str, i32 noundef 284, ptr noundef nonnull @__func__.ossl_c2i_ASN1_OBJECT) #6
  call void (i32, i32, ptr, ...) @ERR_set_error(i32 noundef 13, i32 noundef 216, ptr noundef null) #6
  br label %ASN1_OBJECT_new.exit.thread

56:                                               ; preds = %.lr.ph, %52
  %57 = add nuw nsw i32 %.06993, 1
  %58 = getelementptr inbounds nuw i8, ptr %.07192, i64 1
  %exitcond.not = icmp eq i32 %57, %16
  br i1 %exitcond.not, label %._crit_edge, label %.lr.ph, !llvm.loop !25

._crit_edge:                                      ; preds = %56
  %59 = icmp eq ptr %0, null
  br i1 %59, label %67, label %60

60:                                               ; preds = %._crit_edge
  %61 = load ptr, ptr %0, align 8, !tbaa !21
  %62 = icmp eq ptr %61, null
  br i1 %62, label %67, label %63

63:                                               ; preds = %60
  %64 = getelementptr inbounds nuw i8, ptr %61, i64 32
  %65 = load i32, ptr %64, align 8, !tbaa !20
  %66 = and i32 %65, 1
  %.not84 = icmp eq i32 %66, 0
  br i1 %.not84, label %67, label %71

67:                                               ; preds = %63, %60, %._crit_edge
  %68 = call noalias ptr @CRYPTO_zalloc(i64 noundef 40, ptr noundef nonnull @.str, i32 noundef 340) #6
  %69 = icmp eq ptr %68, null
  br i1 %69, label %ASN1_OBJECT_new.exit.thread, label %ASN1_OBJECT_new.exit

ASN1_OBJECT_new.exit:                             ; preds = %67
  %70 = getelementptr inbounds nuw i8, ptr %68, i64 32
  store i32 1, ptr %70, align 8, !tbaa !20
  br label %71

71:                                               ; preds = %ASN1_OBJECT_new.exit, %63
  %.072 = phi ptr [ %68, %ASN1_OBJECT_new.exit ], [ %61, %63 ]
  %72 = load ptr, ptr %1, align 8, !tbaa !11
  %73 = getelementptr inbounds nuw i8, ptr %.072, i64 24
  %74 = load ptr, ptr %73, align 8, !tbaa !3
  store ptr null, ptr %73, align 8, !tbaa !3
  %75 = icmp eq ptr %74, null
  br i1 %75, label %80, label %76

76:                                               ; preds = %71
  %77 = getelementptr inbounds nuw i8, ptr %.072, i64 20
  %78 = load i32, ptr %77, align 4, !tbaa !10
  %79 = icmp slt i32 %78, %16
  br i1 %79, label %80, label %88

80:                                               ; preds = %76, %71
  %81 = getelementptr inbounds nuw i8, ptr %.072, i64 20
  store i32 0, ptr %81, align 4, !tbaa !10
  call void @CRYPTO_free(ptr noundef %74, ptr noundef nonnull @.str, i32 noundef 304) #6
  %82 = call noalias ptr @CRYPTO_malloc(i64 noundef %2, ptr noundef nonnull @.str, i32 noundef 305) #6
  %83 = icmp eq ptr %82, null
  br i1 %83, label %103, label %84

84:                                               ; preds = %80
  %85 = getelementptr inbounds nuw i8, ptr %.072, i64 32
  %86 = load i32, ptr %85, align 8, !tbaa !20
  %87 = or i32 %86, 8
  store i32 %87, ptr %85, align 8, !tbaa !20
  br label %88

88:                                               ; preds = %84, %76
  %.070 = phi ptr [ %82, %84 ], [ %74, %76 ]
  call void @llvm.memcpy.p0.p0.i64(ptr nonnull align 1 %.070, ptr align 1 %72, i64 %2, i1 false)
  %89 = getelementptr inbounds nuw i8, ptr %.072, i64 32
  %90 = load i32, ptr %89, align 8, !tbaa !20
  %91 = and i32 %90, 4
  %.not85 = icmp eq i32 %91, 0
  br i1 %.not85, label %98, label %92

92:                                               ; preds = %88
  %93 = load ptr, ptr %.072, align 8, !tbaa !23
  call void @CRYPTO_free(ptr noundef %93, ptr noundef nonnull @.str, i32 noundef 313) #6
  %94 = getelementptr inbounds nuw i8, ptr %.072, i64 8
  %95 = load ptr, ptr %94, align 8, !tbaa !24
  call void @CRYPTO_free(ptr noundef %95, ptr noundef nonnull @.str, i32 noundef 314) #6
  %96 = load i32, ptr %89, align 8, !tbaa !20
  %97 = and i32 %96, -5
  store i32 %97, ptr %89, align 8, !tbaa !20
  br label %98

98:                                               ; preds = %92, %88
  store ptr %.070, ptr %73, align 8, !tbaa !3
  %99 = getelementptr inbounds nuw i8, ptr %.072, i64 20
  store i32 %16, ptr %99, align 4, !tbaa !10
  %100 = getelementptr inbounds nuw i8, ptr %72, i64 %2
  call void @llvm.memset.p0.i64(ptr noundef nonnull align 8 dereferenceable(16) %.072, i8 0, i64 16, i1 false)
  br i1 %59, label %102, label %101

101:                                              ; preds = %98
  store ptr %.072, ptr %0, align 8, !tbaa !21
  br label %102

102:                                              ; preds = %101, %98
  store ptr %100, ptr %1, align 8, !tbaa !11
  br label %ASN1_OBJECT_new.exit.thread

103:                                              ; preds = %80
  call void @ERR_new() #6
  call void @ERR_set_debug(ptr noundef nonnull @.str, i32 noundef 330, ptr noundef nonnull @__func__.ossl_c2i_ASN1_OBJECT) #6
  call void (i32, i32, ptr, ...) @ERR_set_error(i32 noundef 13, i32 noundef %16, ptr noundef null) #6
  br i1 %59, label %106, label %104

104:                                              ; preds = %103
  %105 = load ptr, ptr %0, align 8, !tbaa !21
  %.not87 = icmp eq ptr %105, %.072
  br i1 %.not87, label %ASN1_OBJECT_new.exit.thread, label %106

106:                                              ; preds = %104, %103
  call void @ASN1_OBJECT_free(ptr noundef nonnull %.072)
  br label %ASN1_OBJECT_new.exit.thread

ASN1_OBJECT_new.exit.thread:                      ; preds = %67, %104, %106, %102, %55, %46, %14
  %.0 = phi ptr [ null, %14 ], [ %23, %46 ], [ null, %55 ], [ %.072, %102 ], [ null, %106 ], [ null, %104 ], [ null, %67 ]
  call void @llvm.lifetime.end.p0(i64 40, ptr nonnull %4) #6
  ret ptr %.0
}